; Function Attrs: mustprogress uwtable
define noundef ptr @_ZNK6icu_7716SimpleDateFormat23getNumberFormatForFieldEDs(ptr noundef nonnull readonly align 8 captures(none) dereferenceable(528) %0, i16 noundef zeroext %1) local_unnamed_addr #1 align 2 {
  %3 = tail call noundef i32 @_ZN6icu_7717DateFormatSymbols19getPatternCharIndexEDs(i16 noundef zeroext %1)
  %4 = icmp eq i32 %3, 38
  br i1 %4, label %18, label %5

5:                                                ; preds = %2
  %6 = getelementptr inbounds nuw i8, ptr %0, i64 496
  %7 = load ptr, ptr %6, align 8, !tbaa !22
  %8 = icmp eq ptr %7, null
  br i1 %8, label %14, label %9

9:                                                ; preds = %5
  %10 = zext i32 %3 to i64
  %11 = getelementptr inbounds nuw ptr, ptr %7, i64 %10
  %12 = load ptr, ptr %11, align 8, !tbaa !42
  %13 = icmp eq ptr %12, null
  br i1 %13, label %14, label %16

14:                                               ; preds = %9, %5
  %15 = getelementptr inbounds nuw i8, ptr %0, i64 32
  br label %_ZNK6icu_7716SimpleDateFormat22getNumberFormatByIndexE16UDateFormatField.exit

16:                                               ; preds = %9
  %17 = getelementptr inbounds nuw i8, ptr %12, i64 24
  br label %_ZNK6icu_7716SimpleDateFormat22getNumberFormatByIndexE16UDateFormatField.exit

_ZNK6icu_7716SimpleDateFormat22getNumberFormatByIndexE16UDateFormatField.exit: ; preds = %14, %16
  %.0.in.i = phi ptr [ %15, %14 ], [ %17, %16 ]
  %.0.i = load ptr, ptr %.0.in.i, align 8, !tbaa !43
  br label %18

18:                                               ; preds = %2, %_ZNK6icu_7716SimpleDateFormat22getNumberFormatByIndexE16UDateFormatField.exit
  %.0 = phi ptr [ %.0.i, %_ZNK6icu_7716SimpleDateFormat22getNumberFormatByIndexE16UDateFormatField.exit ], [ null, %2 ]
  ret ptr %.0
}